target datalayout = "e-m:e-p270:32:32-p271:32:32-p272:64:64-i64:64-i128:128-f80:128-n8:16:32:64-S128"
target triple = "x86_64-pc-linux-gnu"

%struct.OopFlow = type { ptr, ptr, ptr, ptr, ptr }

; Function Attrs: mustprogress nounwind uwtable
define hidden void @_ZN7OopFlow5mergeEPS_i(ptr noundef nonnull align 8 dereferenceable(40) %0, ptr noundef %1, i32 noundef %2) #1 align 2 {
  %4 = alloca ptr, align 8
  %5 = alloca ptr, align 8
  %6 = alloca i32, align 4
  %7 = alloca i32, align 4
  store ptr %0, ptr %4, align 8
  store ptr %1, ptr %5, align 8
  store i32 %2, ptr %6, align 4
  %8 = load ptr, ptr %4, align 8
  store i32 0, ptr %7, align 4
  br label %9

9:                                                ; preds = %58, %3
  %10 = load i32, ptr %7, align 4
  %11 = load i32, ptr %6, align 4
  %12 = icmp slt i32 %10, %11
  br i1 %12, label %13, label %61

13:                                               ; preds = %9
  %14 = getelementptr inbounds %struct.OopFlow, ptr %8, i32 0, i32 0
  %15 = load ptr, ptr %14, align 8
  %16 = load i32, ptr %7, align 4
  %17 = sext i32 %16 to i64
  %18 = getelementptr inbounds i16, ptr %15, i64 %17
  %19 = load i16, ptr %18, align 2
  %20 = sext i16 %19 to i32
  %21 = load ptr, ptr %5, align 8
  %22 = getelementptr inbounds %struct.OopFlow, ptr %21, i32 0, i32 0
  %23 = load ptr, ptr %22, align 8
  %24 = load i32, ptr %7, align 4
  %25 = sext i32 %24 to i64
  %26 = getelementptr inbounds i16, ptr %23, i64 %25
  %27 = load i16, ptr %26, align 2
  %28 = sext i16 %27 to i32
  %29 = icmp ne i32 %20, %28
  br i1 %29, label %30, label %36

30:                                               ; preds = %13
  %31 = getelementptr inbounds %struct.OopFlow, ptr %8, i32 0, i32 0
  %32 = load ptr, ptr %31, align 8
  %33 = load i32, ptr %7, align 4
  %34 = sext i32 %33 to i64
  %35 = getelementptr inbounds i16, ptr %32, i64 %34
  store i16 -1, ptr %35, align 2
  br label %36

36:                                               ; preds = %30, %13
  %37 = getelementptr inbounds %struct.OopFlow, ptr %8, i32 0, i32 1
  %38 = load ptr, ptr %37, align 8
  %39 = load i32, ptr %7, align 4
  %40 = sext i32 %39 to i64
  %41 = getelementptr inbounds ptr, ptr %38, i64 %40
  %42 = load ptr, ptr %41, align 8
  %43 = load ptr, ptr %5, align 8
  %44 = getelementptr inbounds %struct.OopFlow, ptr %43, i32 0, i32 1
  %45 = load ptr, ptr %44, align 8
  %46 = load i32, ptr %7, align 4
  %47 = sext i32 %46 to i64
  %48 = getelementptr inbounds ptr, ptr %45, i64 %47
  %49 = load ptr, ptr %48, align 8
  %50 = icmp ne ptr %42, %49
  br i1 %50, label %51, label %57

51:                                               ; preds = %36
  %52 = getelementptr inbounds %struct.OopFlow, ptr %8, i32 0, i32 1
  %53 = load ptr, ptr %52, align 8
  %54 = load i32, ptr %7, align 4
  %55 = sext i32 %54 to i64
  %56 = getelementptr inbounds ptr, ptr %53, i64 %55
  store ptr null, ptr %56, align 8
  br label %57

57:                                               ; preds = %51, %36
  br label %58

58:                                               ; preds = %57
  %59 = load i32, ptr %7, align 4
  %60 = add nsw i32 %59, 1
  store i32 %60, ptr %7, align 4
  br label %9, !llvm.loop !15

61:                                               ; preds = %9
  ret void
}