; Function Attrs: mustprogress nofree norecurse nosync nounwind memory(readwrite, inaccessiblemem: none) uwtable
define hidden void @_ZN7OopFlow5mergeEPS_i(ptr nocapture noundef nonnull readonly align 8 dereferenceable(40) %0, ptr nocapture noundef readonly %1, i32 noundef %2) local_unnamed_addr #2 align 2 {
  %4 = icmp sgt i32 %2, 0
  br i1 %4, label %.lr.ph, label %._crit_edge

.lr.ph:                                           ; preds = %3
  %5 = getelementptr inbounds i8, ptr %0, i64 8
  %6 = getelementptr inbounds i8, ptr %1, i64 8
  %wide.trip.count = zext nneg i32 %2 to i64
  br label %7

7:                                                ; preds = %.lr.ph, %23
  %indvars.iv = phi i64 [ 0, %.lr.ph ], [ %indvars.iv.next, %23 ]
  %8 = load ptr, ptr %0, align 8
  %9 = getelementptr inbounds i16, ptr %8, i64 %indvars.iv
  %10 = load i16, ptr %9, align 2
  %11 = load ptr, ptr %1, align 8
  %12 = getelementptr inbounds i16, ptr %11, i64 %indvars.iv
  %13 = load i16, ptr %12, align 2
  %.not = icmp eq i16 %10, %13
  br i1 %.not, label %15, label %14

14:                                               ; preds = %7
  store i16 -1, ptr %9, align 2
  br label %15

15:                                               ; preds = %14, %7
  %16 = load ptr, ptr %5, align 8
  %17 = getelementptr inbounds ptr, ptr %16, i64 %indvars.iv
  %18 = load ptr, ptr %17, align 8
  %19 = load ptr, ptr %6, align 8
  %20 = getelementptr inbounds ptr, ptr %19, i64 %indvars.iv
  %21 = load ptr, ptr %20, align 8
  %.not11 = icmp eq ptr %18, %21
  br i1 %.not11, label %23, label %22

22:                                               ; preds = %15
  store ptr null, ptr %17, align 8
  br label %23

23:                                               ; preds = %15, %22
  %indvars.iv.next = add nuw nsw i64 %indvars.iv, 1
  %exitcond.not = icmp eq i64 %indvars.iv.next, %wide.trip.count
  br i1 %exitcond.not, label %._crit_edge, label %7, !llvm.loop !15

._crit_edge:                                      ; preds = %23, %3
  ret void
}